-----BEGIN RSA PRIVATE KEY-----
MIICXAIBAAKBgQC3ECmvYICf4TTiEb/1ATW/OpiBjwQoU8LnBRSjljfQLksO3Qej
nSO4bCGz8kGOWatpJEjdwzS2Qdg9jASXcDf+PJAPFcPLqZYU58kWMmvQA6r3qaFe
5xD12O8SAkZJKH9Wd0xm8npKpaQMkpni/aV7BLdPh3LbF/ymK0bIt3wtDQIDAQAB
AoGAIgfQJ/kBkDcWVJxGGe6ipiznYtZKSJDhn36TSqHHOF0SuO2f2OuCU2tOjJwR
UbwboE0NeqQqLWNqJm7b/6bt0XWYhJ/EXvOCOJQ7MQys2B9c3md5mTCim86n2KBz
/cXm5fkgwIypxDyjearYA+bOwrTR/v1mrX+zSXgcMUOFL8UCQQDnXZSUKrgwdyIT
OzX5pWBzaiHW7HpHx8PzvctQZSAc25ydIFZGFx85ik7Qyu9yCm2pfTEATnHg8wDT
Tu8l6SNPAkEAyo38K7foa5XA6klODxZ6ZtupwHelxIvGg42JrXmP4oDTgieowYUL
Y96aw48j+9e0oLOuy0Xi+gqxZYyygwDC4wJAJVx4PMD1Q2ZJi195ZNnuzFRsKH/B
c0vv+bFBXrcly2MvVDQ/mkvrj+gkuBS9O+YxNThxLEJ+ozu6e2T4u199gwJADCGG
ycOA6viUDjQHtcWd3Q0o1HsV9Xh9kiFm7nnKUUFv6Wqgo75pGTkawb2P5SRdEAbS
4B+2YU1EpJVRl6DzCwJBANJ9wRoT8Pf9v24UkwKb9Ot6FJ7TFlPdoPH1YhXdqK4r
zynjNUnjBCRphRjAU1y2ZoTCkLhvu63ZwqUvczCXEZk=
-----END RSA PRIVATE KEY-----


Certificate:
    Data:
        Version: 1 (0x0)
        Serial Number: 1048577 (0x100001)
        Signature Algorithm: md5WithRSAEncryption
        Issuer: O=Redpine, OU=Sw/emailAddress=a.com, L=Hyd, ST=Ap, C=IN, CN=RAJASHEKAR
        Validity
            Not Before: Oct 18 16:02:09 2013 GMT
            Not After : Oct 18 16:02:09 2014 GMT
        Subject: C=IN, ST=Ap, O=Redpine, OU=Sw, CN=RAJASHEKAR
        Subject Public Key Info:
            Public Key Algorithm: rsaEncryption
            RSA Public Key: (1024 bit)
                Modulus (1024 bit):
                    00:b7:10:29:af:60:80:9f:e1:34:e2:11:bf:f5:01:
                    35:bf:3a:98:81:8f:04:28:53:c2:e7:05:14:a3:96:
                    37:d0:2e:4b:0e:dd:07:a3:9d:23:b8:6c:21:b3:f2:
                    41:8e:59:ab:69:24:48:dd:c3:34:b6:41:d8:3d:8c:
                    04:97:70:37:fe:3c:90:0f:15:c3:cb:a9:96:14:e7:
                    c9:16:32:6b:d0:03:aa:f7:a9:a1:5e:e7:10:f5:d8:
                    ef:12:02:46:49:28:7f:56:77:4c:66:f2:7a:4a:a5:
                    a4:0c:92:99:e2:fd:a5:7b:04:b7:4f:87:72:db:17:
                    fc:a6:2b:46:c8:b7:7c:2d:0d
                Exponent: 65537 (0x10001)
    Signature Algorithm: md5WithRSAEncryption
        35:26:95:46:e7:fe:12:e8:7e:b1:53:fd:30:26:43:c7:1f:c6:
        47:e8:db:88:53:d8:d2:7b:0f:c7:20:4e:91:c4:17:32:3f:3e:
        11:fa:e1:b7:8c:86:c3:f2:b8:c1:35:bd:1f:09:23:53:a2:7d:
        dc:e9:29:0c:d7:c9:d6:46:45:9f:e9:38:a3:66:9d:e8:92:52:
        03:32:e7:4f:12:33:3c:3a:ed:2a:62:c8:b1:d2:36:9a:53:26:
        01:b9:2b:7a:2e:0b:30:27:ba:ba:a2:91:33:de:84:fc:7d:d4:
        ba:64:41:c0:fa:f3:93:80:42:19:a9:e2:a5:b7:a8:83:90:fe:
        bb:94
-----BEGIN CERTIFICATE-----
MIICMTCCAZoCAxAAATANBgkqhkiG9w0BAQQFADByMRAwDgYDVQQKEwdSZWRwaW5l
MQswCQYDVQQLEwJTdzEUMBIGCSqGSIb3DQEJARYFYS5jb20xDDAKBgNVBAcTA0h5
ZDELMAkGA1UECBMCQXAxCzAJBgNVBAYTAklOMRMwEQYDVQQDEwpSQUpBU0hFS0FS
MB4XDTEzMTAxODE2MDIwOVoXDTE0MTAxODE2MDIwOVowTjELMAkGA1UEBhMCSU4x
CzAJBgNVBAgTAkFwMRAwDgYDVQQKEwdSZWRwaW5lMQswCQYDVQQLEwJTdzETMBEG
A1UEAxMKUkFKQVNIRUtBUjCBnzANBgkqhkiG9w0BAQEFAAOBjQAwgYkCgYEAtxAp
r2CAn+E04hG/9QE1vzqYgY8EKFPC5wUUo5Y30C5LDt0Ho50juGwhs/JBjlmraSRI
3cM0tkHYPYwEl3A3/jyQDxXDy6mWFOfJFjJr0AOq96mhXucQ9djvEgJGSSh/VndM
ZvJ6SqWkDJKZ4v2lewS3T4dy2xf8pitGyLd8LQ0CAwEAATANBgkqhkiG9w0BAQQF
AAOBgQA1JpVG5/4S6H6xU/0wJkPHH8ZH6NuIU9jSew/HIE6RxBcyPz4R+uG3jIbD
8rjBNb0fCSNTon3c6SkM18nWRkWf6TijZp3oklIDMudPEjM8Ou0qYsix0jaaUyYB
uSt6LgswJ7q6opEz3oT8fdS6ZEHA+vOTgEIZqeKlt6iDkP67lA==
-----END CERTIFICATE-----


-----BEGIN CERTIFICATE-----
MIIDOjCCAqOgAwIBAgIJAK987X1h3F1nMA0GCSqGSIb3DQEBBAUAMHIxEDAOBgNV
BAoTB1JlZHBpbmUxCzAJBgNVBAsTAlN3MRQwEgYJKoZIhvcNAQkBFgVhLmNvbTEM
MAoGA1UEBxMDSHlkMQswCQYDVQQIEwJBcDELMAkGA1UEBhMCSU4xEzARBgNVBAMT
ClJBSkFTSEVLQVIwHhcNMTMxMDE4MTYwMDQ1WhcNMTQxMDE4MTYwMDQ1WjByMRAw
DgYDVQQKEwdSZWRwaW5lMQswCQYDVQQLEwJTdzEUMBIGCSqGSIb3DQEJARYFYS5j
b20xDDAKBgNVBAcTA0h5ZDELMAkGA1UECBMCQXAxCzAJBgNVBAYTAklOMRMwEQYD
VQQDEwpSQUpBU0hFS0FSMIGfMA0GCSqGSIb3DQEBAQUAA4GNADCBiQKBgQDubAq+
hCSOVzmYvVSNlWvl0qcX5TxpmvF93GG5Ha0IXcQCDAYOwms8bxlt5Splj4bAKHOc
U3AeFpmq6N656TGrOOegFktdi7ALGD1/uhwm0dVDqF4wZj25B9SyR37vHFm5WCy3
RMMXkvMQtQa5z+h5QTyqaCzWRlo27SD8AA1UjQIDAQABo4HXMIHUMAwGA1UdEwQF
MAMBAf8wHQYDVR0OBBYEFNGUhWuAmaZWUr/KgZD6mQPEOjFYMIGkBgNVHSMEgZww
gZmAFNGUhWuAmaZWUr/KgZD6mQPEOjFYoXakdDByMRAwDgYDVQQKEwdSZWRwaW5l
MQswCQYDVQQLEwJTdzEUMBIGCSqGSIb3DQEJARYFYS5jb20xDDAKBgNVBAcTA0h5
ZDELMAkGA1UECBMCQXAxCzAJBgNVBAYTAklOMRMwEQYDVQQDEwpSQUpBU0hFS0FS
ggkAr3ztfWHcXWcwDQYJKoZIhvcNAQEEBQADgYEAuL6owD7ArZlXKfrBvj2sdjOc
CBpPKjFIZ8RnXEK+WOt4EetLMO7/ADlaqM7lK/gYVz3ITraZRFqMLbJmb+l9Ophg
gI/FdUVSpvVKjU6ybRbWGmuM/o5zbdnMmvaQs3vV9r+iHHRYnX0wL+1w0BYTdg6S
20h/HkeJzyJsBJSyxw0=
-----END CERTIFICATE-----
