Certificate:
    Data:
        Version: 3 (0x2)
        Serial Number: 1 (0x1)
        Signature Algorithm: md5WithRSAEncryption
        Issuer: C=FR, ST=Radius, L=Somewhere, O=Example Inc./emailAddress=admin@example.com, CN=Example Certificate Authority
        Validity
            Not Before: Mar 12 11:27:14 2013 GMT
            Not After : Mar 12 11:27:14 2014 GMT
        Subject: C=FR, ST=Radius, O=Example Inc., CN=Example Server Certificate/emailAddress=admin@example.com
        Subject Public Key Info:
            Public Key Algorithm: rsaEncryption
            RSA Public Key: (2048 bit)
                Modulus (2048 bit):
                    00:b1:b7:b6:f4:cd:a7:5e:18:8a:ec:63:78:fb:5a:
                    1d:d7:40:83:22:95:85:4b:36:eb:ac:fe:b0:ed:a4:
                    98:8e:31:43:3f:48:74:b2:d8:bb:a9:8a:21:40:dd:
                    90:b1:c6:59:d1:f5:ec:c1:3c:97:bb:47:b5:1c:4b:
                    c0:31:bb:c9:52:3d:9b:ad:12:ae:31:4c:43:b6:7d:
                    db:5b:86:33:2e:e5:c1:f5:fb:22:58:c7:09:88:71:
                    8d:d2:21:38:d2:91:61:bb:cf:9a:78:4b:14:18:80:
                    9a:bb:21:59:75:1f:65:4c:ea:11:5c:9e:70:3b:d9:
                    cc:1b:a9:1d:c7:85:8e:52:37:02:bd:c6:96:79:b4:
                    5f:ce:10:31:4d:fa:d1:99:db:b5:8d:de:1a:b3:e7:
                    18:5d:37:61:41:0d:63:c2:8c:f8:8d:c9:4d:c4:1b:
                    d0:c6:5f:4d:ab:c8:d4:b1:b9:d0:f3:53:aa:8a:75:
                    b0:53:d8:ea:72:18:46:a2:90:2a:5c:7c:03:f3:cf:
                    3f:77:96:2d:a1:c1:37:42:92:ca:34:42:e2:60:13:
                    eb:56:59:68:44:50:94:43:68:76:16:6b:58:ff:90:
                    52:33:ac:6e:18:db:c6:2b:7c:7f:81:dc:11:b1:b1:
                    a2:29:18:ae:a1:1d:3f:0c:68:05:a6:9f:30:a9:e1:
                    ca:73
                Exponent: 65537 (0x10001)
        X509v3 extensions:
            X509v3 Extended Key Usage: 
                TLS Web Server Authentication
    Signature Algorithm: md5WithRSAEncryption
        8d:fc:15:c3:05:7f:49:5a:be:66:63:96:95:c7:12:40:b4:02:
        52:6c:c2:09:be:6f:28:cb:42:42:66:25:02:1f:df:cb:eb:be:
        06:8b:38:9d:8e:17:d0:18:70:44:89:d0:87:d7:a4:b7:06:3e:
        4c:07:35:01:db:f5:d3:60:04:91:13:ba:63:95:ef:6e:44:2d:
        be:ea:cf:86:f7:90:bf:c6:20:37:a8:bd:10:4e:f8:49:9a:dd:
        13:29:7a:25:96:ce:76:50:4d:17:9f:59:2a:38:43:a5:72:fb:
        b9:ca:7d:84:22:f4:5e:de:67:e4:67:67:91:6e:df:26:9f:cc:
        a0:f3:ff:99:ef:0d:03:7f:00:e6:cc:71:07:30:42:23:92:2b:
        58:48:09:94:20:0d:77:fa:ca:cb:d8:55:18:ed:0a:d3:05:31:
        54:a7:87:0b:8a:43:69:71:99:46:f8:78:29:4b:4e:ba:51:7b:
        c0:24:a9:57:a0:55:63:af:5e:21:0e:39:99:d8:bf:46:e5:99:
        12:5b:fc:5a:3c:6c:c5:9c:a1:0b:09:02:8e:98:4f:48:2e:ca:
        5f:88:22:66:a5:14:65:52:bf:8e:2e:28:4f:54:22:06:b2:60:
        0a:79:99:6e:8e:d1:f6:ad:75:27:cf:68:fe:69:16:de:e2:bd:
        6a:f4:d0:52
-----BEGIN CERTIFICATE-----
MIIDojCCAoqgAwIBAgIBATANBgkqhkiG9w0BAQQFADCBkzELMAkGA1UEBhMCRlIx
DzANBgNVBAgTBlJhZGl1czESMBAGA1UEBxMJU29tZXdoZXJlMRUwEwYDVQQKEwxF
eGFtcGxlIEluYy4xIDAeBgkqhkiG9w0BCQEWEWFkbWluQGV4YW1wbGUuY29tMSYw
JAYDVQQDEx1FeGFtcGxlIENlcnRpZmljYXRlIEF1dGhvcml0eTAeFw0xMzAzMTIx
MTI3MTRaFw0xNDAzMTIxMTI3MTRaMHwxCzAJBgNVBAYTAkZSMQ8wDQYDVQQIEwZS
YWRpdXMxFTATBgNVBAoTDEV4YW1wbGUgSW5jLjEjMCEGA1UEAxMaRXhhbXBsZSBT
ZXJ2ZXIgQ2VydGlmaWNhdGUxIDAeBgkqhkiG9w0BCQEWEWFkbWluQGV4YW1wbGUu
Y29tMIIBIjANBgkqhkiG9w0BAQEFAAOCAQ8AMIIBCgKCAQEAsbe29M2nXhiK7GN4
+1od10CDIpWFSzbrrP6w7aSYjjFDP0h0sti7qYohQN2QscZZ0fXswTyXu0e1HEvA
MbvJUj2brRKuMUxDtn3bW4YzLuXB9fsiWMcJiHGN0iE40pFhu8+aeEsUGICauyFZ
dR9lTOoRXJ5wO9nMG6kdx4WOUjcCvcaWebRfzhAxTfrRmdu1jd4as+cYXTdhQQ1j
woz4jclNxBvQxl9Nq8jUsbnQ81OqinWwU9jqchhGopAqXHwD888/d5YtocE3QpLK
NELiYBPrVlloRFCUQ2h2FmtY/5BSM6xuGNvGK3x/gdwRsbGiKRiuoR0/DGgFpp8w
qeHKcwIDAQABoxcwFTATBgNVHSUEDDAKBggrBgEFBQcDATANBgkqhkiG9w0BAQQF
AAOCAQEAjfwVwwV/SVq+ZmOWlccSQLQCUmzCCb5vKMtCQmYlAh/fy+u+Bos4nY4X
0BhwRInQh9ektwY+TAc1Adv102AEkRO6Y5XvbkQtvurPhveQv8YgN6i9EE74SZrd
Eyl6JZbOdlBNF59ZKjhDpXL7ucp9hCL0Xt5n5GdnkW7fJp/MoPP/me8NA38A5sxx
BzBCI5IrWEgJlCANd/rKy9hVGO0K0wUxVKeHC4pDaXGZRvh4KUtOulF7wCSpV6BV
Y69eIQ45mdi/RuWZElv8WjxsxZyhCwkCjphPSC7KX4giZqUUZVK/ji4oT1QiBrJg
CnmZbo7R9q11J89o/mkW3uK9avTQUg==
-----END CERTIFICATE-----

